target datalayout = "e-m:e-p270:32:32-p271:32:32-p272:64:64-i64:64-i128:128-f80:128-n8:16:32:64-S128"
target triple = "x86_64-pc-linux-gnu"

@.str = private unnamed_addr constant [104 x i8] c"generated/home/dtcxzyw/WorkSpace/Projects/compilers/llvm-opt-benchmark/bench/hdf5/hdf5/src/H5VLnative.c\00", align 1
@H5E_VOL_g = external global i64, align 8
@H5E_CANTGET_g = external global i64, align 8
@__func__.H5VL__native_get_file_addr_len = private unnamed_addr constant [31 x i8] c"H5VL__native_get_file_addr_len\00", align 1
@.str.5 = private unnamed_addr constant [34 x i8] c"couldn't get file from VOL object\00", align 1
@__func__.H5VL_native_addr_to_token = private unnamed_addr constant [26 x i8] c"H5VL_native_addr_to_token\00", align 1
@.str.11 = private unnamed_addr constant [47 x i8] c"couldn't get length of haddr_t from VOL object\00", align 1

; Function Attrs: nounwind uwtable
define i32 @H5VL__native_get_file_addr_len(ptr noundef %0, i32 noundef %1, ptr noundef %2) #0 {
  %4 = alloca ptr, align 8
  %5 = alloca i32, align 4
  %6 = alloca ptr, align 8
  %7 = alloca ptr, align 8
  %8 = alloca i32, align 4
  %9 = alloca i8, align 1
  store ptr %0, ptr %4, align 8, !tbaa !16
  store i32 %1, ptr %5, align 4, !tbaa !3
  store ptr %2, ptr %6, align 8, !tbaa !21
  call void @llvm.lifetime.start.p0(i64 8, ptr %7) #5
  store ptr null, ptr %7, align 8, !tbaa !23
  call void @llvm.lifetime.start.p0(i64 4, ptr %8) #5
  store i32 0, ptr %8, align 4, !tbaa !3
  call void @llvm.lifetime.start.p0(i64 1, ptr %9) #5
  store i8 0, ptr %9, align 1, !tbaa !7
  %10 = load ptr, ptr %4, align 8, !tbaa !16
  %11 = load i32, ptr %5, align 4, !tbaa !3
  %12 = call i32 @H5VL_native_get_file_struct(ptr noundef %10, i32 noundef %11, ptr noundef %7)
  %13 = icmp slt i32 %12, 0
  br i1 %13, label %14, label %33

14:                                               ; preds = %3
  br label %15

15:                                               ; preds = %14
  br label %16

16:                                               ; preds = %15
  br label %17

17:                                               ; preds = %16
  %18 = load i64, ptr @H5E_VOL_g, align 8, !tbaa !12
  %19 = load i64, ptr @H5E_CANTGET_g, align 8, !tbaa !12
  %20 = call i32 (ptr, ptr, i32, i64, i64, ptr, ...) @H5E_printf_stack(ptr noundef @.str, ptr noundef @__func__.H5VL__native_get_file_addr_len, i32 noundef 355, i64 noundef %18, i64 noundef %19, ptr noundef @.str.5)
  br label %21

21:                                               ; preds = %17
  br label %22

22:                                               ; preds = %21
  store i8 1, ptr %9, align 1, !tbaa !7
  %23 = load i8, ptr %9, align 1, !tbaa !7, !range !14, !noundef !15
  %24 = trunc i8 %23 to i1
  %25 = zext i1 %24 to i8
  store i8 %25, ptr %9, align 1, !tbaa !7
  br label %26

26:                                               ; preds = %22
  br label %27

27:                                               ; preds = %26
  br label %28

28:                                               ; preds = %27
  store i32 -1, ptr %8, align 4, !tbaa !3
  br label %38

29:                                               ; No predecessors!
  br label %30

30:                                               ; preds = %29
  br label %31

31:                                               ; preds = %30
  br label %32

32:                                               ; preds = %31
  br label %33

33:                                               ; preds = %32, %3
  %34 = load ptr, ptr %7, align 8, !tbaa !23
  %35 = call zeroext i8 @H5F_sizeof_addr(ptr noundef %34)
  %36 = zext i8 %35 to i64
  %37 = load ptr, ptr %6, align 8, !tbaa !21
  store i64 %36, ptr %37, align 8, !tbaa !12
  br label %38

38:                                               ; preds = %33, %28
  %39 = load i32, ptr %8, align 4, !tbaa !3
  call void @llvm.lifetime.end.p0(i64 1, ptr %9) #5
  call void @llvm.lifetime.end.p0(i64 4, ptr %8) #5
  call void @llvm.lifetime.end.p0(i64 8, ptr %7) #5
  ret i32 %39
}

; Function Attrs: nounwind uwtable
define i32 @H5VL_native_addr_to_token(ptr noundef %0, i32 noundef %1, i64 noundef %2, ptr noundef %3) #0 {
  %5 = alloca ptr, align 8
  %6 = alloca i32, align 4
  %7 = alloca i64, align 8
  %8 = alloca ptr, align 8
  %9 = alloca ptr, align 8
  %10 = alloca i64, align 8
  %11 = alloca i32, align 4
  %12 = alloca i8, align 1
  store ptr %0, ptr %5, align 8, !tbaa !16
  store i32 %1, ptr %6, align 4, !tbaa !3
  store i64 %2, ptr %7, align 8, !tbaa !12
  store ptr %3, ptr %8, align 8, !tbaa !31
  call void @llvm.lifetime.start.p0(i64 8, ptr %9) #5
  call void @llvm.lifetime.start.p0(i64 8, ptr %10) #5
  store i64 0, ptr %10, align 8, !tbaa !12
  call void @llvm.lifetime.start.p0(i64 4, ptr %11) #5
  store i32 0, ptr %11, align 4, !tbaa !3
  call void @llvm.lifetime.start.p0(i64 1, ptr %12) #5
  store i8 0, ptr %12, align 1, !tbaa !7
  %13 = load ptr, ptr %5, align 8, !tbaa !16
  %14 = load i32, ptr %6, align 4, !tbaa !3
  %15 = call i32 @H5VL__native_get_file_addr_len(ptr noundef %13, i32 noundef %14, ptr noundef %10)
  %16 = icmp slt i32 %15, 0
  br i1 %16, label %17, label %36

17:                                               ; preds = %4
  br label %18

18:                                               ; preds = %17
  br label %19

19:                                               ; preds = %18
  br label %20

20:                                               ; preds = %19
  %21 = load i64, ptr @H5E_VOL_g, align 8, !tbaa !12
  %22 = load i64, ptr @H5E_CANTGET_g, align 8, !tbaa !12
  %23 = call i32 (ptr, ptr, i32, i64, i64, ptr, ...) @H5E_printf_stack(ptr noundef @.str, ptr noundef @__func__.H5VL_native_addr_to_token, i32 noundef 444, i64 noundef %21, i64 noundef %22, ptr noundef @.str.11)
  br label %24

24:                                               ; preds = %20
  br label %25

25:                                               ; preds = %24
  store i8 1, ptr %12, align 1, !tbaa !7
  %26 = load i8, ptr %12, align 1, !tbaa !7, !range !14, !noundef !15
  %27 = trunc i8 %26 to i1
  %28 = zext i1 %27 to i8
  store i8 %28, ptr %12, align 1, !tbaa !7
  br label %29

29:                                               ; preds = %25
  br label %30

30:                                               ; preds = %29
  br label %31

31:                                               ; preds = %30
  store i32 -1, ptr %11, align 4, !tbaa !3
  br label %41

32:                                               ; No predecessors!
  br label %33

33:                                               ; preds = %32
  br label %34

34:                                               ; preds = %33
  br label %35

35:                                               ; preds = %34
  br label %36

36:                                               ; preds = %35, %4
  %37 = load ptr, ptr %8, align 8, !tbaa !31
  call void @llvm.memset.p0.i64(ptr align 1 %37, i8 0, i64 16, i1 false)
  %38 = load ptr, ptr %8, align 8, !tbaa !31
  store ptr %38, ptr %9, align 8, !tbaa !33
  %39 = load i64, ptr %10, align 8, !tbaa !12
  %40 = load i64, ptr %7, align 8, !tbaa !12
  call void @H5F_addr_encode_len(i64 noundef %39, ptr noundef %9, i64 noundef %40)
  br label %41

41:                                               ; preds = %36, %31
  %42 = load i32, ptr %11, align 4, !tbaa !3
  call void @llvm.lifetime.end.p0(i64 1, ptr %12) #5
  call void @llvm.lifetime.end.p0(i64 4, ptr %11) #5
  call void @llvm.lifetime.end.p0(i64 8, ptr %10) #5
  call void @llvm.lifetime.end.p0(i64 8, ptr %9) #5
  ret i32 %42
}