; Function Attrs: nounwind uwtable
define range(i32 -1, 1) i32 @H5VL_native_addr_to_token(ptr noundef %0, i32 noundef %1, i64 noundef %2, ptr noundef %3) local_unnamed_addr #0 {
  %5 = alloca ptr, align 8
  %6 = alloca ptr, align 8
  call void @llvm.lifetime.start.p0(i64 8, ptr nonnull %6) #6
  call void @llvm.lifetime.start.p0(i64 8, ptr nonnull %5) #6
  %7 = call i32 @H5VL_native_get_file_struct(ptr noundef %0, i32 noundef %1, ptr noundef nonnull %5)
  %8 = icmp slt i32 %7, 0
  br i1 %8, label %9, label %16

9:                                                ; preds = %4
  %10 = load i64, ptr @H5E_VOL_g, align 8, !tbaa !8
  %11 = load i64, ptr @H5E_CANTGET_g, align 8, !tbaa !8
  %12 = tail call i32 (ptr, ptr, i32, i64, i64, ptr, ...) @H5E_printf_stack(ptr noundef nonnull @.str, ptr noundef nonnull @__func__.H5VL__native_get_file_addr_len, i32 noundef 355, i64 noundef %10, i64 noundef %11, ptr noundef nonnull @.str.5) #6
  call void @llvm.lifetime.end.p0(i64 8, ptr nonnull %5) #6
  %13 = load i64, ptr @H5E_VOL_g, align 8, !tbaa !8
  %14 = load i64, ptr @H5E_CANTGET_g, align 8, !tbaa !8
  %15 = tail call i32 (ptr, ptr, i32, i64, i64, ptr, ...) @H5E_printf_stack(ptr noundef nonnull @.str, ptr noundef nonnull @__func__.H5VL_native_addr_to_token, i32 noundef 444, i64 noundef %13, i64 noundef %14, ptr noundef nonnull @.str.11) #6
  br label %20

16:                                               ; preds = %4
  %17 = load ptr, ptr %5, align 8, !tbaa !12
  %18 = tail call zeroext i8 @H5F_sizeof_addr(ptr noundef %17) #6
  %19 = zext i8 %18 to i64
  call void @llvm.lifetime.end.p0(i64 8, ptr nonnull %5) #6
  tail call void @llvm.memset.p0.i64(ptr noundef nonnull align 1 dereferenceable(16) %3, i8 0, i64 16, i1 false)
  store ptr %3, ptr %6, align 8, !tbaa !23
  call void @H5F_addr_encode_len(i64 noundef %19, ptr noundef nonnull %6, i64 noundef %2) #6
  br label %20

20:                                               ; preds = %16, %9
  %.0 = phi i32 [ -1, %9 ], [ 0, %16 ]
  call void @llvm.lifetime.end.p0(i64 8, ptr nonnull %6) #6
  ret i32 %.0
}